; Function Attrs: mustprogress uwtable
define hidden noundef nonnull align 8 dereferenceable(8) ptr @_ZN7datalog12rule_manager12collect_varsEP4exprS2_(ptr noundef nonnull align 8 dereferenceable(1368) %this, ptr noundef %e1, ptr noundef %e2) local_unnamed_addr #3 align 2 {
entry:
  %m_var_idx.i = getelementptr inbounds i8, ptr %this, i64 288
  %0 = load ptr, ptr %m_var_idx.i, align 8
  %tobool.not.i.i.i = icmp eq ptr %0, null
  br i1 %tobool.not.i.i.i, label %_ZN7datalog12rule_manager18reset_collect_varsEv.exit, label %if.then.i.i.i

if.then.i.i.i:                                    ; preds = %entry
  %arrayidx.i.i.i = getelementptr inbounds i8, ptr %0, i64 -4
  store i32 0, ptr %arrayidx.i.i.i, align 4
  br label %_ZN7datalog12rule_manager18reset_collect_varsEv.exit

_ZN7datalog12rule_manager18reset_collect_varsEv.exit: ; preds = %entry, %if.then.i.i.i
  %m_free_vars.i = getelementptr inbounds i8, ptr %this, i64 296
  tail call void @_ZN14expr_free_vars5resetEv(ptr noundef nonnull align 8 dereferenceable(40) %m_free_vars.i)
  %tobool.not = icmp eq ptr %e1, null
  br i1 %tobool.not, label %if.end, label %if.then

if.then:                                          ; preds = %_ZN7datalog12rule_manager18reset_collect_varsEv.exit
  tail call void @_ZN14expr_free_vars10accumulateEP4expr(ptr noundef nonnull align 8 dereferenceable(40) %m_free_vars.i, ptr noundef nonnull %e1)
  br label %if.end

if.end:                                           ; preds = %if.then, %_ZN7datalog12rule_manager18reset_collect_varsEv.exit
  %tobool2.not = icmp eq ptr %e2, null
  br i1 %tobool2.not, label %if.end4, label %if.then3

if.then3:                                         ; preds = %if.end
  tail call void @_ZN14expr_free_vars10accumulateEP4expr(ptr noundef nonnull align 8 dereferenceable(40) %m_free_vars.i, ptr noundef nonnull %e2)
  br label %if.end4

if.end4:                                          ; preds = %if.then3, %if.end
  %call = tail call noundef nonnull align 8 dereferenceable(8) ptr @_ZN7datalog12rule_manager21finalize_collect_varsEv(ptr noundef nonnull align 8 dereferenceable(1368) %this)
  ret ptr %call
}